; ModuleID = 'source-C-CXX/42/1565.c'
source_filename = "source-C-CXX/42/1565.c"
target datalayout = "e-m:e-p270:32:32-p271:32:32-p272:64:64-i64:64-f80:128-n8:16:32:64-S128"
target triple = "x86_64-pc-linux-gnu"

@.str = private unnamed_addr constant [3 x i8] c"%d\00", align 1
@.str.1 = private unnamed_addr constant [7 x i8] c"%d %d\0A\00", align 1

; Function Attrs: nofree nounwind sspstrong uwtable
define dso_local i32 @main() local_unnamed_addr #0 {
  %1 = alloca i32, align 4
  %2 = bitcast i32* %1 to i8*
  call void @llvm.lifetime.start.p0i8(i64 4, i8* nonnull %2) #4
  %3 = call i32 (i8*, ...) @__isoc99_scanf(i8* getelementptr inbounds ([3 x i8], [3 x i8]* @.str, i64 0, i64 0), i32* nonnull %1)
  %4 = load i32, i32* %1, align 4, !tbaa !5
  %5 = icmp slt i32 %4, 6
  br i1 %5, label %43, label %6

6:                                                ; preds = %0, %38
  %7 = phi i32 [ %39, %38 ], [ %4, %0 ]
  %8 = phi i32 [ %40, %38 ], [ 3, %0 ]
  %9 = and i32 %8, 1
  %10 = icmp eq i32 %9, 0
  br i1 %10, label %38, label %11

11:                                               ; preds = %6, %14
  %12 = phi i32 [ %17, %14 ], [ 3, %6 ]
  %13 = icmp eq i32 %12, %8
  br i1 %13, label %18, label %14, !llvm.loop !9

14:                                               ; preds = %11
  %15 = urem i32 %8, %12
  %16 = icmp eq i32 %15, 0
  %17 = add nuw nsw i32 %12, 1
  br i1 %16, label %18, label %11, !llvm.loop !9

18:                                               ; preds = %14, %11
  %19 = icmp ult i32 %12, %8
  br i1 %19, label %38, label %20

20:                                               ; preds = %18
  %21 = sub nsw i32 %7, %8
  %22 = icmp sgt i32 %21, 2
  br i1 %22, label %23, label %35

23:                                               ; preds = %20
  %24 = and i32 %21, 1
  %25 = icmp eq i32 %24, 0
  br i1 %25, label %38, label %26

26:                                               ; preds = %23, %29
  %27 = phi i32 [ %32, %29 ], [ 3, %23 ]
  %28 = icmp eq i32 %27, %21
  br i1 %28, label %33, label %29, !llvm.loop !9

29:                                               ; preds = %26
  %30 = srem i32 %21, %27
  %31 = icmp eq i32 %30, 0
  %32 = add nuw nsw i32 %27, 1
  br i1 %31, label %33, label %26, !llvm.loop !9

33:                                               ; preds = %29, %26
  %34 = icmp slt i32 %27, %21
  br i1 %34, label %38, label %35

35:                                               ; preds = %20, %33
  %36 = call i32 (i8*, ...) @printf(i8* nonnull dereferenceable(1) getelementptr inbounds ([7 x i8], [7 x i8]* @.str.1, i64 0, i64 0), i32 %8, i32 %21)
  %37 = load i32, i32* %1, align 4, !tbaa !5
  br label %38

38:                                               ; preds = %6, %23, %18, %33, %35
  %39 = phi i32 [ %7, %23 ], [ %7, %18 ], [ %7, %33 ], [ %37, %35 ], [ %7, %6 ]
  %40 = add nuw nsw i32 %8, 1
  %41 = sdiv i32 %39, 2
  %42 = icmp slt i32 %8, %41
  br i1 %42, label %6, label %43, !llvm.loop !11

43:                                               ; preds = %38, %0
  call void @llvm.lifetime.end.p0i8(i64 4, i8* nonnull %2) #4
  ret i32 0
}

; Function Attrs: argmemonly mustprogress nofree nosync nounwind willreturn
declare void @llvm.lifetime.start.p0i8(i64 immarg, i8* nocapture) #1

; Function Attrs: nofree nounwind
declare noundef i32 @__isoc99_scanf(i8* nocapture noundef readonly, ...) local_unnamed_addr #2

; Function Attrs: nofree norecurse nosync nounwind readnone sspstrong uwtable
define dso_local i32 @SS(i32 %0) local_unnamed_addr #3 {
  %2 = icmp sgt i32 %0, 2
  br i1 %2, label %3, label %16

3:                                                ; preds = %1
  %4 = and i32 %0, 1
  %5 = icmp eq i32 %4, 0
  br i1 %5, label %16, label %6

6:                                                ; preds = %3, %9
  %7 = phi i32 [ %12, %9 ], [ 3, %3 ]
  %8 = icmp eq i32 %7, %0
  br i1 %8, label %13, label %9, !llvm.loop !9

9:                                                ; preds = %6
  %10 = srem i32 %0, %7
  %11 = icmp eq i32 %10, 0
  %12 = add nuw nsw i32 %7, 1
  br i1 %11, label %13, label %6, !llvm.loop !9

13:                                               ; preds = %6, %9
  %14 = icmp sge i32 %7, %0
  %15 = zext i1 %14 to i32
  br label %16

16:                                               ; preds = %13, %3, %1
  %17 = phi i32 [ 1, %1 ], [ 0, %3 ], [ %15, %13 ]
  ret i32 %17
}

; Function Attrs: nofree nounwind
declare noundef i32 @printf(i8* nocapture noundef readonly, ...) local_unnamed_addr #2

; Function Attrs: argmemonly mustprogress nofree nosync nounwind willreturn
declare void @llvm.lifetime.end.p0i8(i64 immarg, i8* nocapture) #1


!llvm.module.flags = !{!0, !1, !2, !3}
!llvm.ident = !{!4}

!0 = !{i32 1, !"wchar_size", i32 4}
!1 = !{i32 7, !"PIC Level", i32 2}
!2 = !{i32 7, !"PIE Level", i32 2}
!3 = !{i32 7, !"uwtable", i32 1}
!4 = !{!"clang version 13.0.0"}
!5 = !{!6, !6, i64 0}
!6 = !{!"int", !7, i64 0}
!7 = !{!"omnipotent char", !8, i64 0}
!8 = !{!"Simple C/C++ TBAA"}
!9 = distinct !{!9, !10}
!10 = !{!"llvm.loop.mustprogress"}
!11 = distinct !{!11, !10}
